; Function Attrs: mustprogress nofree norecurse nosync nounwind willreturn memory(readwrite, inaccessiblemem: none) uwtable
define hidden void @_ZNK6OopMap12copy_data_toEPh(ptr nocapture noundef nonnull readonly align 8 dereferenceable(32) %0, ptr nocapture noundef writeonly %1) local_unnamed_addr #4 align 2 {
  %3 = getelementptr inbounds i8, ptr %0, i64 24
  %4 = load ptr, ptr %3, align 8
  %5 = load ptr, ptr %4, align 8
  %6 = getelementptr inbounds i8, ptr %4, i64 8
  %7 = load i32, ptr %6, align 8
  %8 = sext i32 %7 to i64
  tail call void @llvm.memcpy.p0.p0.i64(ptr align 1 %1, ptr align 1 %5, i64 %8, i1 false)
  ret void
}